#include <math.h>
#include <stdio.h>
#include <stdlib.h>
#include <string.h>

int main()
{
	int i,j,k,n,t,r;
	scanf("%d%d",&n,&k);
    i=1;
	while(1)
	{i++;
	 j=0;
	 t=i;
	 r=1;
	while(r<=n)
	{if ((t-k)%n!=0||(t-k)==0) break;
	else {j=j+1;t=t-(t-k)/n-k;}
	r++;
	}
	if (j==n) {printf("%d",i);break;}
	}
}
	
