; ModuleID = '54/377.c'
source_filename = "54/377.c"
target datalayout = "e-m:e-p270:32:32-p271:32:32-p272:64:64-i64:64-f80:128-n8:16:32:64-S128"
target triple = "x86_64-pc-linux-gnu"

@.str = private unnamed_addr constant [5 x i8] c"%d%d\00", align 1
@.str.1 = private unnamed_addr constant [3 x i8] c"%d\00", align 1

; Function Attrs: noinline nounwind uwtable
define dso_local i32 @main() #0 {
  %1 = alloca i32, align 4
  %2 = alloca i32, align 4
  %3 = alloca i32, align 4
  %4 = alloca i32, align 4
  %5 = alloca i32, align 4
  %6 = alloca i32, align 4
  %7 = alloca i32, align 4
  store i32 0, i32* %1, align 4
  %8 = call i32 (i8*, ...) @__isoc99_scanf(i8* getelementptr inbounds ([5 x i8], [5 x i8]* @.str, i64 0, i64 0), i32* %5, i32* %4)
  store i32 1, i32* %2, align 4
  br label %9

9:                                                ; preds = %0, %52
  %10 = load i32, i32* %2, align 4
  %11 = add nsw i32 %10, 1
  store i32 %11, i32* %2, align 4
  store i32 0, i32* %3, align 4
  %12 = load i32, i32* %2, align 4
  store i32 %12, i32* %6, align 4
  store i32 1, i32* %7, align 4
  br label %13

13:                                               ; preds = %42, %9
  %14 = load i32, i32* %7, align 4
  %15 = load i32, i32* %5, align 4
  %16 = icmp sle i32 %14, %15
  br i1 %16, label %17, label %45

17:                                               ; preds = %13
  %18 = load i32, i32* %6, align 4
  %19 = load i32, i32* %4, align 4
  %20 = sub nsw i32 %18, %19
  %21 = load i32, i32* %5, align 4
  %22 = srem i32 %20, %21
  %23 = icmp ne i32 %22, 0
  br i1 %23, label %29, label %24

24:                                               ; preds = %17
  %25 = load i32, i32* %6, align 4
  %26 = load i32, i32* %4, align 4
  %27 = sub nsw i32 %25, %26
  %28 = icmp eq i32 %27, 0
  br i1 %28, label %29, label %30

29:                                               ; preds = %24, %17
  br label %45

30:                                               ; preds = %24
  %31 = load i32, i32* %3, align 4
  %32 = add nsw i32 %31, 1
  store i32 %32, i32* %3, align 4
  %33 = load i32, i32* %6, align 4
  %34 = load i32, i32* %6, align 4
  %35 = load i32, i32* %4, align 4
  %36 = sub nsw i32 %34, %35
  %37 = load i32, i32* %5, align 4
  %38 = sdiv i32 %36, %37
  %39 = sub nsw i32 %33, %38
  %40 = load i32, i32* %4, align 4
  %41 = sub nsw i32 %39, %40
  store i32 %41, i32* %6, align 4
  br label %42

42:                                               ; preds = %30
  %43 = load i32, i32* %7, align 4
  %44 = add nsw i32 %43, 1
  store i32 %44, i32* %7, align 4
  br label %13

45:                                               ; preds = %29, %13
  %46 = load i32, i32* %3, align 4
  %47 = load i32, i32* %5, align 4
  %48 = icmp eq i32 %46, %47
  br i1 %48, label %49, label %52

49:                                               ; preds = %45
  %50 = load i32, i32* %2, align 4
  %51 = call i32 (i8*, ...) @printf(i8* getelementptr inbounds ([3 x i8], [3 x i8]* @.str.1, i64 0, i64 0), i32 %50)
  br label %53

52:                                               ; preds = %45
  br label %9

53:                                               ; preds = %49
  %54 = load i32, i32* %1, align 4
  ret i32 %54
}

declare dso_local i32 @__isoc99_scanf(i8*, ...) #1

declare dso_local i32 @printf(i8*, ...) #1


!llvm.module.flags = !{!0}
!llvm.ident = !{!1}

!0 = !{i32 1, !"wchar_size", i32 4}
!1 = !{!"clang version 10.0.0-4ubuntu1 "}
